target datalayout = "e-m:e-p270:32:32-p271:32:32-p272:64:64-i64:64-i128:128-f80:128-n8:16:32:64-S128"
target triple = "x86_64-pc-linux-gnu"

%"class.net::TcpCubicSenderBytes" = type { %"class.net::TcpCubicSenderBase.base", %"class.net::CubicBytes", i64, i64, i64, i64, i64, i64, i64, i64 }
%"class.net::TcpCubicSenderBase.base" = type <{ %"class.net::SendAlgorithmInterface", %"class.net::HybridSlowStart", %"class.net::PrrSender", ptr, ptr, i8, [3 x i8], i32, i64, i64, i64, i8, i8, i8, i8, i8 }>
%"class.net::SendAlgorithmInterface" = type { ptr }
%"class.net::HybridSlowStart" = type { i8, i32, i64, i64, i32, %"class.net::QuicTime::Delta" }
%"class.net::QuicTime::Delta" = type { %"class.base::TimeDelta", i64 }
%"class.base::TimeDelta" = type { i64 }
%"class.net::PrrSender" = type { i64, i64, i64, i64 }
%"class.net::CubicBytes" = type { ptr, i32, %"class.net::QuicTime", %"class.net::QuicTime", i64, i64, i64, i64, i64, i32, i64 }
%"class.net::QuicTime" = type { i64 }

; Function Attrs: mustprogress uwtable
define void @_ZN3net19TcpCubicSenderBytes27HandleRetransmissionTimeoutEv(ptr noundef nonnull align 8 dereferenceable(296) %0) unnamed_addr #0 align 2 {
  %2 = alloca ptr, align 8
  store ptr %0, ptr %2, align 8, !tbaa !3
  %3 = load ptr, ptr %2, align 8
  %4 = getelementptr inbounds nuw %"class.net::TcpCubicSenderBytes", ptr %3, i32 0, i32 1
  call void @_ZN3net10CubicBytes5ResetEv(ptr noundef nonnull align 8 dereferenceable(88) %4)
  %5 = getelementptr inbounds nuw %"class.net::TcpCubicSenderBytes", ptr %3, i32 0, i32 3
  %6 = load i64, ptr %5, align 8, !tbaa !34
  %7 = udiv i64 %6, 2
  %8 = getelementptr inbounds nuw %"class.net::TcpCubicSenderBytes", ptr %3, i32 0, i32 6
  store i64 %7, ptr %8, align 8, !tbaa !37
  %9 = getelementptr inbounds nuw %"class.net::TcpCubicSenderBytes", ptr %3, i32 0, i32 4
  %10 = load i64, ptr %9, align 8, !tbaa !35
  %11 = getelementptr inbounds nuw %"class.net::TcpCubicSenderBytes", ptr %3, i32 0, i32 3
  store i64 %10, ptr %11, align 8, !tbaa !34
  ret void
}