; Function Attrs: mustprogress uwtable
define void @_ZN3net19TcpCubicSenderBytes27HandleRetransmissionTimeoutEv(ptr noundef nonnull align 8 dereferenceable(296) %0) unnamed_addr #0 align 2 {
  %2 = getelementptr inbounds nuw i8, ptr %0, i64 144
  tail call void @_ZN3net10CubicBytes5ResetEv(ptr noundef nonnull align 8 dereferenceable(88) %2)
  %3 = getelementptr inbounds nuw i8, ptr %0, i64 240
  %4 = load i64, ptr %3, align 8, !tbaa !25
  %5 = lshr i64 %4, 1
  %6 = getelementptr inbounds nuw i8, ptr %0, i64 264
  store i64 %5, ptr %6, align 8, !tbaa !28
  %7 = getelementptr inbounds nuw i8, ptr %0, i64 248
  %8 = load i64, ptr %7, align 8, !tbaa !26
  store i64 %8, ptr %3, align 8, !tbaa !25
  ret void
}